target datalayout = "e-m:e-p270:32:32-p271:32:32-p272:64:64-i64:64-i128:128-f80:128-n8:16:32:64-S128"
target triple = "x86_64-pc-linux-gnu"

%"class.flatbuffers::VerifierTemplate" = type { ptr, i64, %"struct.flatbuffers::VerifierTemplate<false>::Options", i64, i32, i32, ptr }
%"struct.flatbuffers::VerifierTemplate<false>::Options" = type <{ i32, i32, i8, i8, [6 x i8], i64, i8, [7 x i8] }>
%"class.flatbuffers::Table" = type { [1 x i8] }

; Function Attrs: mustprogress nounwind uwtable
define linkonce_odr dso_local noundef zeroext i16 @_ZN11flatbuffers12EndianScalarItEET_S1_(i16 noundef zeroext %0) #1 comdat {
  %2 = alloca i16, align 2
  store i16 %0, ptr %2, align 2, !tbaa !15
  %3 = load i16, ptr %2, align 2, !tbaa !15
  ret i16 %3
}

; Function Attrs: mustprogress nounwind uwtable
define linkonce_odr dso_local noundef i32 @_ZN11flatbuffers12EndianScalarIiEET_S1_(i32 noundef %0) #1 comdat {
  %2 = alloca i32, align 4
  store i32 %0, ptr %2, align 4, !tbaa !17
  %3 = load i32, ptr %2, align 4, !tbaa !17
  ret i32 %3
}

; Function Attrs: mustprogress uwtable
define linkonce_odr dso_local noundef zeroext i16 @_ZN11flatbuffers10ReadScalarItEET_PKv(ptr noundef %0) #0 comdat {
  %2 = alloca ptr, align 8
  store ptr %0, ptr %2, align 8, !tbaa !13
  %3 = load ptr, ptr %2, align 8, !tbaa !13
  %4 = load i16, ptr %3, align 2, !tbaa !15
  %5 = call noundef zeroext i16 @_ZN11flatbuffers12EndianScalarItEET_S1_(i16 noundef zeroext %4)
  ret i16 %5
}

; Function Attrs: mustprogress uwtable
define linkonce_odr dso_local noundef ptr @_ZNK11flatbuffers5Table9GetVTableEv(ptr noundef nonnull align 1 dereferenceable(1) %0) #0 comdat align 2 {
  %2 = alloca ptr, align 8
  store ptr %0, ptr %2, align 8, !tbaa !31
  %3 = load ptr, ptr %2, align 8
  %4 = getelementptr inbounds nuw %"class.flatbuffers::Table", ptr %3, i32 0, i32 0
  %5 = getelementptr inbounds [1 x i8], ptr %4, i64 0, i64 0
  %6 = getelementptr inbounds nuw %"class.flatbuffers::Table", ptr %3, i32 0, i32 0
  %7 = getelementptr inbounds [1 x i8], ptr %6, i64 0, i64 0
  %8 = call noundef i32 @_ZN11flatbuffers10ReadScalarIiEET_PKv(ptr noundef %7)
  %9 = sext i32 %8 to i64
  %10 = sub i64 0, %9
  %11 = getelementptr inbounds i8, ptr %5, i64 %10
  ret ptr %11
}

; Function Attrs: mustprogress nounwind uwtable
define linkonce_odr dso_local noundef i32 @_ZN11flatbuffers12EndianScalarIjEET_S1_(i32 noundef %0) #1 comdat {
  %2 = alloca i32, align 4
  store i32 %0, ptr %2, align 4, !tbaa !17
  %3 = load i32, ptr %2, align 4, !tbaa !17
  ret i32 %3
}

; Function Attrs: mustprogress uwtable
define linkonce_odr dso_local noundef zeroext i1 @_ZNK11flatbuffers16VerifierTemplateILb0EE15VerifyAlignmentEmm(ptr noundef nonnull align 8 dereferenceable(72) %0, i64 noundef %1, i64 noundef %2) #0 comdat align 2 {
  %4 = alloca ptr, align 8
  %5 = alloca i64, align 8
  %6 = alloca i64, align 8
  store ptr %0, ptr %4, align 8, !tbaa !174
  store i64 %1, ptr %5, align 8, !tbaa !19
  store i64 %2, ptr %6, align 8, !tbaa !19
  %7 = load ptr, ptr %4, align 8
  %8 = load i64, ptr %5, align 8, !tbaa !19
  %9 = load i64, ptr %6, align 8, !tbaa !19
  %10 = sub i64 %9, 1
  %11 = and i64 %8, %10
  %12 = icmp eq i64 %11, 0
  br i1 %12, label %19, label %13

13:                                               ; preds = %3
  %14 = getelementptr inbounds nuw %"class.flatbuffers::VerifierTemplate", ptr %7, i32 0, i32 2
  %15 = getelementptr inbounds nuw %"struct.flatbuffers::VerifierTemplate<false>::Options", ptr %14, i32 0, i32 2
  %16 = load i8, ptr %15, align 8, !tbaa !346, !range !55, !noundef !56
  %17 = trunc i8 %16 to i1
  %18 = xor i1 %17, true
  br label %19

19:                                               ; preds = %13, %3
  %20 = phi i1 [ true, %3 ], [ %18, %13 ]
  %21 = call noundef zeroext i1 @_ZNK11flatbuffers16VerifierTemplateILb0EE5CheckEb(ptr noundef nonnull align 8 dereferenceable(72) %7, i1 noundef zeroext %20)
  ret i1 %21
}

; Function Attrs: mustprogress uwtable
define linkonce_odr dso_local noundef i32 @_ZN11flatbuffers10ReadScalarIiEET_PKv(ptr noundef %0) #0 comdat {
  %2 = alloca ptr, align 8
  store ptr %0, ptr %2, align 8, !tbaa !13
  %3 = load ptr, ptr %2, align 8, !tbaa !13
  %4 = load i32, ptr %3, align 4, !tbaa !17
  %5 = call noundef i32 @_ZN11flatbuffers12EndianScalarIiEET_S1_(i32 noundef %4)
  ret i32 %5
}

; Function Attrs: mustprogress uwtable
define linkonce_odr dso_local noundef zeroext i16 @_ZNK11flatbuffers5Table22GetOptionalFieldOffsetEt(ptr noundef nonnull align 1 dereferenceable(1) %0, i16 noundef zeroext %1) #0 comdat align 2 {
  %3 = alloca ptr, align 8
  %4 = alloca i16, align 2
  %5 = alloca ptr, align 8
  %6 = alloca i16, align 2
  store ptr %0, ptr %3, align 8, !tbaa !31
  store i16 %1, ptr %4, align 2, !tbaa !15
  %7 = load ptr, ptr %3, align 8
  call void @llvm.lifetime.start.p0(i64 8, ptr %5) #20
  %8 = call noundef ptr @_ZNK11flatbuffers5Table9GetVTableEv(ptr noundef nonnull align 1 dereferenceable(1) %7)
  store ptr %8, ptr %5, align 8, !tbaa !8
  call void @llvm.lifetime.start.p0(i64 2, ptr %6) #20
  %9 = load ptr, ptr %5, align 8, !tbaa !8
  %10 = call noundef zeroext i16 @_ZN11flatbuffers10ReadScalarItEET_PKv(ptr noundef %9)
  store i16 %10, ptr %6, align 2, !tbaa !15
  %11 = load i16, ptr %4, align 2, !tbaa !15
  %12 = zext i16 %11 to i32
  %13 = load i16, ptr %6, align 2, !tbaa !15
  %14 = zext i16 %13 to i32
  %15 = icmp slt i32 %12, %14
  br i1 %15, label %16, label %24

16:                                               ; preds = %2
  %17 = load ptr, ptr %5, align 8, !tbaa !8
  %18 = load i16, ptr %4, align 2, !tbaa !15
  %19 = zext i16 %18 to i32
  %20 = sext i32 %19 to i64
  %21 = getelementptr inbounds i8, ptr %17, i64 %20
  %22 = call noundef zeroext i16 @_ZN11flatbuffers10ReadScalarItEET_PKv(ptr noundef %21)
  %23 = zext i16 %22 to i32
  br label %25

24:                                               ; preds = %2
  br label %25

25:                                               ; preds = %24, %16
  %26 = phi i32 [ %23, %16 ], [ 0, %24 ]
  %27 = trunc i32 %26 to i16
  call void @llvm.lifetime.end.p0(i64 2, ptr %6) #20
  call void @llvm.lifetime.end.p0(i64 8, ptr %5) #20
  ret i16 %27
}

; Function Attrs: mustprogress nounwind uwtable
define linkonce_odr dso_local noundef zeroext i1 @_ZNK11flatbuffers16VerifierTemplateILb0EE6VerifyEmm(ptr noundef nonnull align 8 dereferenceable(72) %0, i64 noundef %1, i64 noundef %2) #1 comdat align 2 {
  %4 = alloca ptr, align 8
  %5 = alloca i64, align 8
  %6 = alloca i64, align 8
  store ptr %0, ptr %4, align 8, !tbaa !174
  store i64 %1, ptr %5, align 8, !tbaa !19
  store i64 %2, ptr %6, align 8, !tbaa !19
  %7 = load ptr, ptr %4, align 8
  %8 = load i64, ptr %6, align 8, !tbaa !19
  %9 = getelementptr inbounds nuw %"class.flatbuffers::VerifierTemplate", ptr %7, i32 0, i32 1
  %10 = load i64, ptr %9, align 8, !tbaa !347
  %11 = icmp ult i64 %8, %10
  br i1 %11, label %12, label %19

12:                                               ; preds = %3
  %13 = load i64, ptr %5, align 8, !tbaa !19
  %14 = getelementptr inbounds nuw %"class.flatbuffers::VerifierTemplate", ptr %7, i32 0, i32 1
  %15 = load i64, ptr %14, align 8, !tbaa !347
  %16 = load i64, ptr %6, align 8, !tbaa !19
  %17 = sub i64 %15, %16
  %18 = icmp ule i64 %13, %17
  br label %19

19:                                               ; preds = %12, %3
  %20 = phi i1 [ false, %3 ], [ %18, %12 ]
  %21 = call noundef zeroext i1 @_ZNK11flatbuffers16VerifierTemplateILb0EE5CheckEb(ptr noundef nonnull align 8 dereferenceable(72) %7, i1 noundef zeroext %20)
  ret i1 %21
}

; Function Attrs: mustprogress nounwind uwtable
define linkonce_odr dso_local noundef zeroext i1 @_ZNK11flatbuffers16VerifierTemplateILb0EE5CheckEb(ptr noundef nonnull align 8 dereferenceable(72) %0, i1 noundef zeroext %1) #1 comdat align 2 {
  %3 = alloca ptr, align 8
  %4 = alloca i8, align 1
  store ptr %0, ptr %3, align 8, !tbaa !174
  %5 = zext i1 %1 to i8
  store i8 %5, ptr %4, align 1, !tbaa !53
  %6 = load i8, ptr %4, align 1, !tbaa !53, !range !55, !noundef !56
  %7 = trunc i8 %6 to i1
  ret i1 %7
}

; Function Attrs: mustprogress nounwind uwtable
define linkonce_odr dso_local noundef i32 @_ZN11flatbuffers10ReadScalarIjEET_PKv(ptr noundef %0) #1 comdat {
  %2 = alloca ptr, align 8
  store ptr %0, ptr %2, align 8, !tbaa !13
  %3 = load ptr, ptr %2, align 8, !tbaa !13
  %4 = load i32, ptr %3, align 4, !tbaa !17
  %5 = call noundef i32 @_ZN11flatbuffers12EndianScalarIjEET_S1_(i32 noundef %4)
  ret i32 %5
}

; Function Attrs: mustprogress uwtable
define linkonce_odr dso_local noundef zeroext i1 @_ZNK11flatbuffers16VerifierTemplateILb0EE6VerifyIjEEbm(ptr noundef nonnull align 8 dereferenceable(72) %0, i64 noundef %1) #0 comdat align 2 {
  %3 = alloca ptr, align 8
  %4 = alloca i64, align 8
  store ptr %0, ptr %3, align 8, !tbaa !174
  store i64 %1, ptr %4, align 8, !tbaa !19
  %5 = load ptr, ptr %3, align 8
  %6 = load i64, ptr %4, align 8, !tbaa !19
  %7 = call noundef zeroext i1 @_ZNK11flatbuffers16VerifierTemplateILb0EE15VerifyAlignmentEmm(ptr noundef nonnull align 8 dereferenceable(72) %5, i64 noundef %6, i64 noundef 4)
  br i1 %7, label %8, label %11

8:                                                ; preds = %2
  %9 = load i64, ptr %4, align 8, !tbaa !19
  %10 = call noundef zeroext i1 @_ZNK11flatbuffers16VerifierTemplateILb0EE6VerifyEmm(ptr noundef nonnull align 8 dereferenceable(72) %5, i64 noundef %9, i64 noundef 4)
  br label %11

11:                                               ; preds = %8, %2
  %12 = phi i1 [ false, %2 ], [ %10, %8 ]
  ret i1 %12
}

; Function Attrs: mustprogress uwtable
define linkonce_odr dso_local noundef i32 @_ZNK11flatbuffers5Table8GetFieldIiEET_tS2_(ptr noundef nonnull align 1 dereferenceable(1) %0, i16 noundef zeroext %1, i32 noundef %2) #0 comdat align 2 {
  %4 = alloca ptr, align 8
  %5 = alloca i16, align 2
  %6 = alloca i32, align 4
  %7 = alloca i16, align 2
  store ptr %0, ptr %4, align 8, !tbaa !31
  store i16 %1, ptr %5, align 2, !tbaa !15
  store i32 %2, ptr %6, align 4, !tbaa !17
  %8 = load ptr, ptr %4, align 8
  call void @llvm.lifetime.start.p0(i64 2, ptr %7) #20
  %9 = load i16, ptr %5, align 2, !tbaa !15
  %10 = call noundef zeroext i16 @_ZNK11flatbuffers5Table22GetOptionalFieldOffsetEt(ptr noundef nonnull align 1 dereferenceable(1) %8, i16 noundef zeroext %9)
  store i16 %10, ptr %7, align 2, !tbaa !15
  %11 = load i16, ptr %7, align 2, !tbaa !15
  %12 = icmp ne i16 %11, 0
  br i1 %12, label %13, label %21

13:                                               ; preds = %3
  %14 = getelementptr inbounds nuw %"class.flatbuffers::Table", ptr %8, i32 0, i32 0
  %15 = getelementptr inbounds [1 x i8], ptr %14, i64 0, i64 0
  %16 = load i16, ptr %7, align 2, !tbaa !15
  %17 = zext i16 %16 to i32
  %18 = sext i32 %17 to i64
  %19 = getelementptr inbounds i8, ptr %15, i64 %18
  %20 = call noundef i32 @_ZN11flatbuffers10ReadScalarIiEET_PKv(ptr noundef %19)
  br label %23

21:                                               ; preds = %3
  %22 = load i32, ptr %6, align 4, !tbaa !17
  br label %23

23:                                               ; preds = %21, %13
  %24 = phi i32 [ %20, %13 ], [ %22, %21 ]
  call void @llvm.lifetime.end.p0(i64 2, ptr %7) #20
  ret i32 %24
}

; Function Attrs: mustprogress uwtable
define linkonce_odr dso_local noundef ptr @_ZN11flatbuffers5Table10GetPointerIPKhjEET_t(ptr noundef nonnull align 1 dereferenceable(1) %0, i16 noundef zeroext %1) #0 comdat align 2 {
  %3 = alloca ptr, align 8
  %4 = alloca i16, align 2
  %5 = alloca i16, align 2
  %6 = alloca ptr, align 8
  store ptr %0, ptr %3, align 8, !tbaa !31
  store i16 %1, ptr %4, align 2, !tbaa !15
  %7 = load ptr, ptr %3, align 8
  call void @llvm.lifetime.start.p0(i64 2, ptr %5) #20
  %8 = load i16, ptr %4, align 2, !tbaa !15
  %9 = call noundef zeroext i16 @_ZNK11flatbuffers5Table22GetOptionalFieldOffsetEt(ptr noundef nonnull align 1 dereferenceable(1) %7, i16 noundef zeroext %8)
  store i16 %9, ptr %5, align 2, !tbaa !15
  call void @llvm.lifetime.start.p0(i64 8, ptr %6) #20
  %10 = getelementptr inbounds nuw %"class.flatbuffers::Table", ptr %7, i32 0, i32 0
  %11 = getelementptr inbounds [1 x i8], ptr %10, i64 0, i64 0
  %12 = load i16, ptr %5, align 2, !tbaa !15
  %13 = zext i16 %12 to i32
  %14 = sext i32 %13 to i64
  %15 = getelementptr inbounds i8, ptr %11, i64 %14
  store ptr %15, ptr %6, align 8, !tbaa !8
  %16 = load i16, ptr %5, align 2, !tbaa !15
  %17 = icmp ne i16 %16, 0
  br i1 %17, label %18, label %24

18:                                               ; preds = %2
  %19 = load ptr, ptr %6, align 8, !tbaa !8
  %20 = load ptr, ptr %6, align 8, !tbaa !8
  %21 = call noundef i32 @_ZN11flatbuffers10ReadScalarIjEET_PKv(ptr noundef %20)
  %22 = zext i32 %21 to i64
  %23 = getelementptr inbounds nuw i8, ptr %19, i64 %22
  br label %25

24:                                               ; preds = %2
  br label %25

25:                                               ; preds = %24, %18
  %26 = phi ptr [ %23, %18 ], [ null, %24 ]
  call void @llvm.lifetime.end.p0(i64 8, ptr %6) #20
  call void @llvm.lifetime.end.p0(i64 2, ptr %5) #20
  ret ptr %26
}

; Function Attrs: mustprogress uwtable
define linkonce_odr dso_local noundef zeroext i1 @_ZNK11flatbuffers16VerifierTemplateILb0EE20VerifyVectorOrStringIjEEbPKhmPm(ptr noundef nonnull align 8 dereferenceable(72) %0, ptr noundef %1, i64 noundef %2, ptr noundef %3) #0 comdat align 2 {
  %5 = alloca i1, align 1
  %6 = alloca ptr, align 8
  %7 = alloca ptr, align 8
  %8 = alloca i64, align 8
  %9 = alloca ptr, align 8
  %10 = alloca i64, align 8
  %11 = alloca i32, align 4
  %12 = alloca i32, align 4
  %13 = alloca i64, align 8
  %14 = alloca i64, align 8
  store ptr %0, ptr %6, align 8, !tbaa !174
  store ptr %1, ptr %7, align 8, !tbaa !8
  store i64 %2, ptr %8, align 8, !tbaa !19
  store ptr %3, ptr %9, align 8, !tbaa !179
  %15 = load ptr, ptr %6, align 8
  call void @llvm.lifetime.start.p0(i64 8, ptr %10) #20
  %16 = load ptr, ptr %7, align 8, !tbaa !8
  %17 = getelementptr inbounds nuw %"class.flatbuffers::VerifierTemplate", ptr %15, i32 0, i32 0
  %18 = load ptr, ptr %17, align 8, !tbaa !333
  %19 = ptrtoint ptr %16 to i64
  %20 = ptrtoint ptr %18 to i64
  %21 = sub i64 %19, %20
  store i64 %21, ptr %10, align 8, !tbaa !19
  %22 = load i64, ptr %10, align 8, !tbaa !19
  %23 = call noundef zeroext i1 @_ZNK11flatbuffers16VerifierTemplateILb0EE6VerifyIjEEbm(ptr noundef nonnull align 8 dereferenceable(72) %15, i64 noundef %22)
  br i1 %23, label %25, label %24

24:                                               ; preds = %4
  store i1 false, ptr %5, align 1
  store i32 1, ptr %11, align 4
  br label %57

25:                                               ; preds = %4
  call void @llvm.lifetime.start.p0(i64 4, ptr %12) #20
  %26 = load ptr, ptr %7, align 8, !tbaa !8
  %27 = call noundef i32 @_ZN11flatbuffers10ReadScalarIjEET_PKv(ptr noundef %26)
  store i32 %27, ptr %12, align 4, !tbaa !17
  call void @llvm.lifetime.start.p0(i64 8, ptr %13) #20
  %28 = getelementptr inbounds nuw %"class.flatbuffers::VerifierTemplate", ptr %15, i32 0, i32 2
  %29 = getelementptr inbounds nuw %"struct.flatbuffers::VerifierTemplate<false>::Options", ptr %28, i32 0, i32 5
  %30 = load i64, ptr %29, align 8, !tbaa !348
  %31 = load i64, ptr %8, align 8, !tbaa !19
  %32 = udiv i64 %30, %31
  store i64 %32, ptr %13, align 8, !tbaa !19
  %33 = load i32, ptr %12, align 4, !tbaa !17
  %34 = zext i32 %33 to i64
  %35 = load i64, ptr %13, align 8, !tbaa !19
  %36 = icmp ult i64 %34, %35
  %37 = call noundef zeroext i1 @_ZNK11flatbuffers16VerifierTemplateILb0EE5CheckEb(ptr noundef nonnull align 8 dereferenceable(72) %15, i1 noundef zeroext %36)
  br i1 %37, label %39, label %38

38:                                               ; preds = %25
  store i1 false, ptr %5, align 1
  store i32 1, ptr %11, align 4
  br label %56

39:                                               ; preds = %25
  call void @llvm.lifetime.start.p0(i64 8, ptr %14) #20
  %40 = load i64, ptr %8, align 8, !tbaa !19
  %41 = load i32, ptr %12, align 4, !tbaa !17
  %42 = zext i32 %41 to i64
  %43 = mul i64 %40, %42
  %44 = add i64 4, %43
  store i64 %44, ptr %14, align 8, !tbaa !19
  %45 = load ptr, ptr %9, align 8, !tbaa !179
  %46 = icmp ne ptr %45, null
  br i1 %46, label %47, label %52

47:                                               ; preds = %39
  %48 = load i64, ptr %10, align 8, !tbaa !19
  %49 = load i64, ptr %14, align 8, !tbaa !19
  %50 = add i64 %48, %49
  %51 = load ptr, ptr %9, align 8, !tbaa !179
  store i64 %50, ptr %51, align 8, !tbaa !19
  br label %52

52:                                               ; preds = %47, %39
  %53 = load i64, ptr %10, align 8, !tbaa !19
  %54 = load i64, ptr %14, align 8, !tbaa !19
  %55 = call noundef zeroext i1 @_ZNK11flatbuffers16VerifierTemplateILb0EE6VerifyEmm(ptr noundef nonnull align 8 dereferenceable(72) %15, i64 noundef %53, i64 noundef %54)
  store i1 %55, ptr %5, align 1
  store i32 1, ptr %11, align 4
  call void @llvm.lifetime.end.p0(i64 8, ptr %14) #20
  br label %56

56:                                               ; preds = %52, %38
  call void @llvm.lifetime.end.p0(i64 8, ptr %13) #20
  call void @llvm.lifetime.end.p0(i64 4, ptr %12) #20
  br label %57

57:                                               ; preds = %56, %24
  call void @llvm.lifetime.end.p0(i64 8, ptr %10) #20
  %58 = load i1, ptr %5, align 1
  ret i1 %58
}

; Function Attrs: mustprogress uwtable
define linkonce_odr dso_local noundef i32 @_ZNK10reflection6Object8bytesizeEv(ptr noundef nonnull align 1 dereferenceable(1) %0) #0 comdat align 2 {
  %2 = alloca ptr, align 8
  store ptr %0, ptr %2, align 8, !tbaa !29
  %3 = load ptr, ptr %2, align 8
  %4 = call noundef i32 @_ZNK11flatbuffers5Table8GetFieldIiEET_tS2_(ptr noundef nonnull align 1 dereferenceable(1) %3, i16 noundef zeroext 12, i32 noundef 0)
  ret i32 %4
}

; Function Attrs: mustprogress uwtable
define linkonce_odr dso_local noundef ptr @_ZNK11flatbuffers5Table10GetPointerIPKhjEET_t(ptr noundef nonnull align 1 dereferenceable(1) %0, i16 noundef zeroext %1) #0 comdat align 2 {
  %3 = alloca ptr, align 8
  %4 = alloca i16, align 2
  store ptr %0, ptr %3, align 8, !tbaa !31
  store i16 %1, ptr %4, align 2, !tbaa !15
  %5 = load ptr, ptr %3, align 8
  %6 = load i16, ptr %4, align 2, !tbaa !15
  %7 = call noundef ptr @_ZN11flatbuffers5Table10GetPointerIPKhjEET_t(ptr noundef nonnull align 1 dereferenceable(1) %5, i16 noundef zeroext %6)
  ret ptr %7
}

; Function Attrs: mustprogress uwtable
define internal noundef zeroext i1 @_ZN11flatbuffers12_GLOBAL__N_121VerifyVectorOfStructsERNS_16VerifierTemplateILb0EEERKNS_5TableEtRKN10reflection6ObjectEb(ptr noundef nonnull align 8 dereferenceable(72) %0, ptr noundef nonnull align 1 dereferenceable(1) %1, i16 noundef zeroext %2, ptr noundef nonnull align 1 dereferenceable(1) %3, i1 noundef zeroext %4) #0 {
  %6 = alloca i1, align 1
  %7 = alloca ptr, align 8
  %8 = alloca ptr, align 8
  %9 = alloca i16, align 2
  %10 = alloca ptr, align 8
  %11 = alloca i8, align 1
  %12 = alloca ptr, align 8
  %13 = alloca i32, align 4
  store ptr %0, ptr %7, align 8, !tbaa !174
  store ptr %1, ptr %8, align 8, !tbaa !31
  store i16 %2, ptr %9, align 2, !tbaa !15
  store ptr %3, ptr %10, align 8, !tbaa !29
  %14 = zext i1 %4 to i8
  store i8 %14, ptr %11, align 1, !tbaa !53
  call void @llvm.lifetime.start.p0(i64 8, ptr %12) #20
  %15 = load ptr, ptr %8, align 8, !tbaa !31
  %16 = load i16, ptr %9, align 2, !tbaa !15
  %17 = call noundef ptr @_ZNK11flatbuffers5Table10GetPointerIPKhjEET_t(ptr noundef nonnull align 1 dereferenceable(1) %15, i16 noundef zeroext %16)
  store ptr %17, ptr %12, align 8, !tbaa !8
  %18 = load i8, ptr %11, align 1, !tbaa !53, !range !55, !noundef !56
  %19 = trunc i8 %18 to i1
  br i1 %19, label %20, label %24

20:                                               ; preds = %5
  %21 = load ptr, ptr %12, align 8, !tbaa !8
  %22 = icmp ne ptr %21, null
  br i1 %22, label %24, label %23

23:                                               ; preds = %20
  store i1 false, ptr %6, align 1
  store i32 1, ptr %13, align 4
  br label %36

24:                                               ; preds = %20, %5
  %25 = load ptr, ptr %12, align 8, !tbaa !8
  %26 = icmp ne ptr %25, null
  br i1 %26, label %27, label %34

27:                                               ; preds = %24
  %28 = load ptr, ptr %7, align 8, !tbaa !174
  %29 = load ptr, ptr %12, align 8, !tbaa !8
  %30 = load ptr, ptr %10, align 8, !tbaa !29
  %31 = call noundef i32 @_ZNK10reflection6Object8bytesizeEv(ptr noundef nonnull align 1 dereferenceable(1) %30)
  %32 = sext i32 %31 to i64
  %33 = call noundef zeroext i1 @_ZNK11flatbuffers16VerifierTemplateILb0EE20VerifyVectorOrStringIjEEbPKhmPm(ptr noundef nonnull align 8 dereferenceable(72) %28, ptr noundef %29, i64 noundef %32, ptr noundef null)
  br label %34

34:                                               ; preds = %27, %24
  %35 = phi i1 [ true, %24 ], [ %33, %27 ]
  store i1 %35, ptr %6, align 1
  store i32 1, ptr %13, align 4
  br label %36

36:                                               ; preds = %34, %23
  call void @llvm.lifetime.end.p0(i64 8, ptr %12) #20
  %37 = load i1, ptr %6, align 1
  ret i1 %37
}