; Function Attrs: mustprogress nofree norecurse nosync nounwind willreturn memory(argmem: read) uwtable
define internal fastcc noundef zeroext i1 @_ZN11flatbuffers12_GLOBAL__N_121VerifyVectorOfStructsERNS_16VerifierTemplateILb0EEERKNS_5TableEtRKN10reflection6ObjectEb(ptr noundef nonnull readonly align 8 captures(none) dereferenceable(72) %0, ptr noundef nonnull align 1 dereferenceable(1) %1, i16 noundef zeroext %2, ptr noundef nonnull readonly align 1 captures(none) dereferenceable(1) %3, i1 noundef zeroext %4) unnamed_addr #14 {
  %6 = load i32, ptr %1, align 4, !tbaa !9
  %7 = sext i32 %6 to i64
  %8 = sub nsw i64 0, %7
  %9 = getelementptr inbounds i8, ptr %1, i64 %8
  %10 = load i16, ptr %9, align 2, !tbaa !7
  %11 = icmp ult i16 %2, %10
  br i1 %11, label %_ZNK11flatbuffers5Table22GetOptionalFieldOffsetEt.exit.i.i, label %_ZNK11flatbuffers5Table10GetPointerIPKhjEET_t.exit.thread

_ZNK11flatbuffers5Table22GetOptionalFieldOffsetEt.exit.i.i: ; preds = %5
  %12 = zext i16 %2 to i64
  %13 = getelementptr inbounds nuw i8, ptr %9, i64 %12
  %14 = load i16, ptr %13, align 2, !tbaa !7
  %.not.i.i = icmp eq i16 %14, 0
  br i1 %.not.i.i, label %_ZNK11flatbuffers5Table10GetPointerIPKhjEET_t.exit.thread, label %15

_ZNK11flatbuffers5Table10GetPointerIPKhjEET_t.exit.thread: ; preds = %_ZNK11flatbuffers5Table22GetOptionalFieldOffsetEt.exit.i.i, %5
  %not. = xor i1 %4, true
  br label %_ZNK11flatbuffers16VerifierTemplateILb0EE20VerifyVectorOrStringIjEEbPKhmPm.exit

15:                                               ; preds = %_ZNK11flatbuffers5Table22GetOptionalFieldOffsetEt.exit.i.i
  %16 = zext i16 %14 to i64
  %17 = getelementptr inbounds nuw i8, ptr %1, i64 %16
  %18 = load i32, ptr %17, align 4, !tbaa !9
  %19 = zext i32 %18 to i64
  %20 = getelementptr inbounds nuw i8, ptr %17, i64 %19
  %21 = load i32, ptr %3, align 4, !tbaa !9
  %22 = sext i32 %21 to i64
  %23 = sub nsw i64 0, %22
  %24 = getelementptr inbounds i8, ptr %3, i64 %23
  %25 = load i16, ptr %24, align 2, !tbaa !7
  %26 = icmp ugt i16 %25, 12
  br i1 %26, label %_ZNK11flatbuffers5Table22GetOptionalFieldOffsetEt.exit.i.i11, label %_ZNK10reflection6Object8bytesizeEv.exit

_ZNK11flatbuffers5Table22GetOptionalFieldOffsetEt.exit.i.i11: ; preds = %15
  %27 = getelementptr inbounds nuw i8, ptr %24, i64 12
  %28 = load i16, ptr %27, align 2, !tbaa !7
  %.not.i.i12 = icmp eq i16 %28, 0
  br i1 %.not.i.i12, label %_ZNK10reflection6Object8bytesizeEv.exit, label %29

29:                                               ; preds = %_ZNK11flatbuffers5Table22GetOptionalFieldOffsetEt.exit.i.i11
  %30 = zext i16 %28 to i64
  %31 = getelementptr inbounds nuw i8, ptr %3, i64 %30
  %32 = load i32, ptr %31, align 4, !tbaa !9
  %33 = sext i32 %32 to i64
  br label %_ZNK10reflection6Object8bytesizeEv.exit

_ZNK10reflection6Object8bytesizeEv.exit:          ; preds = %15, %_ZNK11flatbuffers5Table22GetOptionalFieldOffsetEt.exit.i.i11, %29
  %34 = phi i64 [ %33, %29 ], [ 0, %_ZNK11flatbuffers5Table22GetOptionalFieldOffsetEt.exit.i.i11 ], [ 0, %15 ]
  %35 = load ptr, ptr %0, align 8, !tbaa !137
  %36 = ptrtoint ptr %20 to i64
  %37 = ptrtoint ptr %35 to i64
  %38 = sub i64 %36, %37
  %39 = and i64 %38, 3
  %40 = icmp ne i64 %39, 0
  %41 = getelementptr inbounds nuw i8, ptr %0, i64 24
  %42 = load i8, ptr %41, align 8, !range !127
  %43 = trunc nuw i8 %42 to i1
  %.not2.i.i = select i1 %40, i1 %43, i1 false
  br i1 %.not2.i.i, label %_ZNK11flatbuffers16VerifierTemplateILb0EE20VerifyVectorOrStringIjEEbPKhmPm.exit, label %_ZNK11flatbuffers16VerifierTemplateILb0EE6VerifyIjEEbm.exit.i

_ZNK11flatbuffers16VerifierTemplateILb0EE6VerifyIjEEbm.exit.i: ; preds = %_ZNK10reflection6Object8bytesizeEv.exit
  %44 = getelementptr inbounds nuw i8, ptr %0, i64 8
  %45 = load i64, ptr %44, align 8, !tbaa !140
  %46 = icmp ugt i64 %45, 4
  %47 = add i64 %45, -4
  %48 = icmp ule i64 %38, %47
  %49 = and i1 %46, %48
  br i1 %49, label %50, label %_ZNK11flatbuffers16VerifierTemplateILb0EE20VerifyVectorOrStringIjEEbPKhmPm.exit

50:                                               ; preds = %_ZNK11flatbuffers16VerifierTemplateILb0EE6VerifyIjEEbm.exit.i
  %51 = load i32, ptr %20, align 4, !tbaa !9
  %52 = getelementptr inbounds nuw i8, ptr %0, i64 32
  %53 = load i64, ptr %52, align 8, !tbaa !145
  %54 = udiv i64 %53, %34
  %55 = zext i32 %51 to i64
  %56 = icmp ugt i64 %54, %55
  br i1 %56, label %57, label %_ZNK11flatbuffers16VerifierTemplateILb0EE20VerifyVectorOrStringIjEEbPKhmPm.exit

57:                                               ; preds = %50
  %58 = mul nsw i64 %34, %55
  %59 = add nsw i64 %58, 4
  %60 = icmp ult i64 %59, %45
  %61 = sub nuw i64 %45, %59
  %62 = icmp ule i64 %38, %61
  %63 = select i1 %60, i1 %62, i1 false
  br label %_ZNK11flatbuffers16VerifierTemplateILb0EE20VerifyVectorOrStringIjEEbPKhmPm.exit

_ZNK11flatbuffers16VerifierTemplateILb0EE20VerifyVectorOrStringIjEEbPKhmPm.exit: ; preds = %57, %50, %_ZNK11flatbuffers16VerifierTemplateILb0EE6VerifyIjEEbm.exit.i, %_ZNK10reflection6Object8bytesizeEv.exit, %_ZNK11flatbuffers5Table10GetPointerIPKhjEET_t.exit.thread
  %.0 = phi i1 [ %not., %_ZNK11flatbuffers5Table10GetPointerIPKhjEET_t.exit.thread ], [ false, %_ZNK11flatbuffers16VerifierTemplateILb0EE6VerifyIjEEbm.exit.i ], [ %63, %57 ], [ false, %50 ], [ false, %_ZNK10reflection6Object8bytesizeEv.exit ]
  ret i1 %.0
}